target datalayout = "e-m:e-p270:32:32-p271:32:32-p272:64:64-i64:64-i128:128-f80:128-n8:16:32:64-S128"
target triple = "x86_64-pc-linux-gnu"

@PyExc_OSError = external global ptr, align 8

; Function Attrs: nounwind uwtable
define internal i64 @_Py_write_impl(i32 noundef %0, ptr noundef %1, i64 noundef %2, i32 noundef %3) #0 {
  %5 = alloca i64, align 8
  %6 = alloca i32, align 4
  %7 = alloca ptr, align 8
  %8 = alloca i64, align 8
  %9 = alloca i32, align 4
  %10 = alloca i64, align 8
  %11 = alloca i32, align 4
  %12 = alloca i32, align 4
  %13 = alloca ptr, align 8
  %14 = alloca i32, align 4
  store i32 %0, ptr %6, align 4, !tbaa !4
  store ptr %1, ptr %7, align 8, !tbaa !198
  store i64 %2, ptr %8, align 8, !tbaa !186
  store i32 %3, ptr %9, align 4, !tbaa !4
  call void @llvm.lifetime.start.p0(i64 8, ptr %10) #10
  call void @llvm.lifetime.start.p0(i64 4, ptr %11) #10
  call void @llvm.lifetime.start.p0(i64 4, ptr %12) #10
  store i32 0, ptr %12, align 4, !tbaa !4
  %15 = load i64, ptr %8, align 8, !tbaa !186
  %16 = icmp ugt i64 %15, 9223372036854775807
  br i1 %16, label %17, label %18

17:                                               ; preds = %4
  store i64 9223372036854775807, ptr %8, align 8, !tbaa !186
  br label %18

18:                                               ; preds = %17, %4
  %19 = load i32, ptr %9, align 4, !tbaa !4
  %20 = icmp ne i32 %19, 0
  br i1 %20, label %21, label %45

21:                                               ; preds = %18
  br label %22

22:                                               ; preds = %42, %21
  call void @llvm.lifetime.start.p0(i64 8, ptr %13) #10
  %23 = call ptr @PyEval_SaveThread()
  store ptr %23, ptr %13, align 8, !tbaa !8
  %24 = call ptr @__errno_location() #12
  store i32 0, ptr %24, align 4, !tbaa !4
  %25 = load i32, ptr %6, align 4, !tbaa !4
  %26 = load ptr, ptr %7, align 8, !tbaa !198
  %27 = load i64, ptr %8, align 8, !tbaa !186
  %28 = call i64 @write(i32 noundef %25, ptr noundef %26, i64 noundef %27)
  store i64 %28, ptr %10, align 8, !tbaa !186
  %29 = call ptr @__errno_location() #12
  %30 = load i32, ptr %29, align 4, !tbaa !4
  store i32 %30, ptr %11, align 4, !tbaa !4
  %31 = load ptr, ptr %13, align 8, !tbaa !8
  call void @PyEval_RestoreThread(ptr noundef %31)
  call void @llvm.lifetime.end.p0(i64 8, ptr %13) #10
  br label %32

32:                                               ; preds = %22
  %33 = load i64, ptr %10, align 8, !tbaa !186
  %34 = icmp slt i64 %33, 0
  br i1 %34, label %35, label %42

35:                                               ; preds = %32
  %36 = load i32, ptr %11, align 4, !tbaa !4
  %37 = icmp eq i32 %36, 4
  br i1 %37, label %38, label %42

38:                                               ; preds = %35
  %39 = call i32 @PyErr_CheckSignals()
  store i32 %39, ptr %12, align 4, !tbaa !4
  %40 = icmp ne i32 %39, 0
  %41 = xor i1 %40, true
  br label %42

42:                                               ; preds = %38, %35, %32
  %43 = phi i1 [ false, %35 ], [ false, %32 ], [ %41, %38 ]
  br i1 %43, label %22, label %44, !llvm.loop !200

44:                                               ; preds = %42
  br label %63

45:                                               ; preds = %18
  br label %46

46:                                               ; preds = %60, %45
  %47 = call ptr @__errno_location() #12
  store i32 0, ptr %47, align 4, !tbaa !4
  %48 = load i32, ptr %6, align 4, !tbaa !4
  %49 = load ptr, ptr %7, align 8, !tbaa !198
  %50 = load i64, ptr %8, align 8, !tbaa !186
  %51 = call i64 @write(i32 noundef %48, ptr noundef %49, i64 noundef %50)
  store i64 %51, ptr %10, align 8, !tbaa !186
  %52 = call ptr @__errno_location() #12
  %53 = load i32, ptr %52, align 4, !tbaa !4
  store i32 %53, ptr %11, align 4, !tbaa !4
  br label %54

54:                                               ; preds = %46
  %55 = load i64, ptr %10, align 8, !tbaa !186
  %56 = icmp slt i64 %55, 0
  br i1 %56, label %57, label %60

57:                                               ; preds = %54
  %58 = load i32, ptr %11, align 4, !tbaa !4
  %59 = icmp eq i32 %58, 4
  br label %60

60:                                               ; preds = %57, %54
  %61 = phi i1 [ false, %54 ], [ %59, %57 ]
  br i1 %61, label %46, label %62, !llvm.loop !201

62:                                               ; preds = %60
  br label %63

63:                                               ; preds = %62, %44
  %64 = load i32, ptr %12, align 4, !tbaa !4
  %65 = icmp ne i32 %64, 0
  br i1 %65, label %66, label %69

66:                                               ; preds = %63
  %67 = load i32, ptr %11, align 4, !tbaa !4
  %68 = call ptr @__errno_location() #12
  store i32 %67, ptr %68, align 4, !tbaa !4
  store i64 -1, ptr %5, align 8
  store i32 1, ptr %14, align 4
  br label %83

69:                                               ; preds = %63
  %70 = load i64, ptr %10, align 8, !tbaa !186
  %71 = icmp slt i64 %70, 0
  br i1 %71, label %72, label %81

72:                                               ; preds = %69
  %73 = load i32, ptr %9, align 4, !tbaa !4
  %74 = icmp ne i32 %73, 0
  br i1 %74, label %75, label %78

75:                                               ; preds = %72
  %76 = load ptr, ptr @PyExc_OSError, align 8, !tbaa !178
  %77 = call ptr @PyErr_SetFromErrno(ptr noundef %76)
  br label %78

78:                                               ; preds = %75, %72
  %79 = load i32, ptr %11, align 4, !tbaa !4
  %80 = call ptr @__errno_location() #12
  store i32 %79, ptr %80, align 4, !tbaa !4
  store i64 -1, ptr %5, align 8
  store i32 1, ptr %14, align 4
  br label %83

81:                                               ; preds = %69
  %82 = load i64, ptr %10, align 8, !tbaa !186
  store i64 %82, ptr %5, align 8
  store i32 1, ptr %14, align 4
  br label %83

83:                                               ; preds = %81, %78, %66
  call void @llvm.lifetime.end.p0(i64 4, ptr %12) #10
  call void @llvm.lifetime.end.p0(i64 4, ptr %11) #10
  call void @llvm.lifetime.end.p0(i64 8, ptr %10) #10
  %84 = load i64, ptr %5, align 8
  ret i64 %84
}

; Function Attrs: nounwind uwtable
define dso_local i64 @_Py_write_noraise(i32 noundef %0, ptr noundef %1, i64 noundef %2) #0 {
  %4 = alloca i32, align 4
  %5 = alloca ptr, align 8
  %6 = alloca i64, align 8
  store i32 %0, ptr %4, align 4, !tbaa !4
  store ptr %1, ptr %5, align 8, !tbaa !198
  store i64 %2, ptr %6, align 8, !tbaa !186
  %7 = load i32, ptr %4, align 4, !tbaa !4
  %8 = load ptr, ptr %5, align 8, !tbaa !198
  %9 = load i64, ptr %6, align 8, !tbaa !186
  %10 = call i64 @_Py_write_impl(i32 noundef %7, ptr noundef %8, i64 noundef %9, i32 noundef 0)
  ret i64 %10
}