; Function Attrs: nofree nounwind uwtable
define dso_local range(i64 -1, -9223372036854775808) i64 @_Py_write_noraise(i32 noundef %0, ptr noundef readonly captures(none) %1, i64 noundef %2) local_unnamed_addr #6 {
  %spec.store.select.i = tail call i64 @llvm.umin.i64(i64 %2, i64 9223372036854775807)
  %4 = tail call ptr @__errno_location() #19
  br label %5

5:                                                ; preds = %5, %3
  store i32 0, ptr %4, align 4, !tbaa !180
  %6 = tail call i64 @write(i32 noundef %0, ptr noundef readonly %1, i64 noundef %spec.store.select.i) #17
  %7 = load i32, ptr %4, align 4, !tbaa !180
  %8 = icmp slt i64 %6, 0
  %9 = icmp eq i32 %7, 4
  %10 = select i1 %8, i1 %9, i1 false
  br i1 %10, label %5, label %.loopexit.i, !llvm.loop !193

.loopexit.i:                                      ; preds = %5
  %spec.select = select i1 %8, i64 -1, i64 %6
  ret i64 %spec.select
}